; Function Attrs: mustprogress uwtable
define dso_local i64 @_ZN14cmFileLockPool17LockFunctionScopeERKNSt7__cxx1112basic_stringIcSt11char_traitsIcESaIcEEEm(ptr noundef nonnull readonly align 8 captures(none) dereferenceable(72) %0, ptr noundef nonnull align 8 dereferenceable(32) %1, i64 noundef %2) local_unnamed_addr #2 align 2 {
  %4 = load ptr, ptr %0, align 8
  %5 = getelementptr inbounds nuw i8, ptr %0, i64 8
  %6 = load ptr, ptr %5, align 8
  %.not21.i = icmp eq ptr %4, %6
  br i1 %.not21.i, label %._crit_edge.i, label %.lr.ph.i

7:                                                ; preds = %.lr.ph.i
  %8 = getelementptr inbounds nuw i8, ptr %.sroa.016.022.i, i64 24
  %.not.i = icmp eq ptr %8, %6
  br i1 %.not.i, label %._crit_edge.i, label %.lr.ph.i

.lr.ph.i:                                         ; preds = %3, %7
  %.sroa.016.022.i = phi ptr [ %8, %7 ], [ %4, %3 ]
  %9 = tail call noundef zeroext i1 @_ZNK14cmFileLockPool9ScopePool15IsAlreadyLockedERKNSt7__cxx1112basic_stringIcSt11char_traitsIcESaIcEEE(ptr noundef nonnull align 8 dereferenceable(24) %.sroa.016.022.i, ptr noundef nonnull align 8 dereferenceable(32) %1)
  br i1 %9, label %_ZNK14cmFileLockPool15IsAlreadyLockedERKNSt7__cxx1112basic_stringIcSt11char_traitsIcESaIcEEE.exit.thread, label %7

._crit_edge.i:                                    ; preds = %7, %3
  %10 = getelementptr inbounds nuw i8, ptr %0, i64 24
  %11 = load ptr, ptr %10, align 8
  %12 = getelementptr inbounds nuw i8, ptr %0, i64 32
  %13 = load ptr, ptr %12, align 8
  %.not1923.i = icmp eq ptr %11, %13
  br i1 %.not1923.i, label %_ZNK14cmFileLockPool15IsAlreadyLockedERKNSt7__cxx1112basic_stringIcSt11char_traitsIcESaIcEEE.exit, label %.lr.ph26.i

14:                                               ; preds = %.lr.ph26.i
  %15 = getelementptr inbounds nuw i8, ptr %.sroa.012.024.i, i64 24
  %.not19.i = icmp eq ptr %15, %13
  br i1 %.not19.i, label %_ZNK14cmFileLockPool15IsAlreadyLockedERKNSt7__cxx1112basic_stringIcSt11char_traitsIcESaIcEEE.exit, label %.lr.ph26.i

.lr.ph26.i:                                       ; preds = %._crit_edge.i, %14
  %.sroa.012.024.i = phi ptr [ %15, %14 ], [ %11, %._crit_edge.i ]
  %16 = tail call noundef zeroext i1 @_ZNK14cmFileLockPool9ScopePool15IsAlreadyLockedERKNSt7__cxx1112basic_stringIcSt11char_traitsIcESaIcEEE(ptr noundef nonnull align 8 dereferenceable(24) %.sroa.012.024.i, ptr noundef nonnull align 8 dereferenceable(32) %1)
  br i1 %16, label %_ZNK14cmFileLockPool15IsAlreadyLockedERKNSt7__cxx1112basic_stringIcSt11char_traitsIcESaIcEEE.exit.thread, label %14

_ZNK14cmFileLockPool15IsAlreadyLockedERKNSt7__cxx1112basic_stringIcSt11char_traitsIcESaIcEEE.exit: ; preds = %14, %._crit_edge.i
  %17 = getelementptr inbounds nuw i8, ptr %0, i64 48
  %18 = tail call noundef zeroext i1 @_ZNK14cmFileLockPool9ScopePool15IsAlreadyLockedERKNSt7__cxx1112basic_stringIcSt11char_traitsIcESaIcEEE(ptr noundef nonnull readonly align 8 dereferenceable(24) %17, ptr noundef nonnull align 8 dereferenceable(32) %1)
  br i1 %18, label %_ZNK14cmFileLockPool15IsAlreadyLockedERKNSt7__cxx1112basic_stringIcSt11char_traitsIcESaIcEEE.exit.thread, label %20

_ZNK14cmFileLockPool15IsAlreadyLockedERKNSt7__cxx1112basic_stringIcSt11char_traitsIcESaIcEEE.exit.thread: ; preds = %.lr.ph.i, %.lr.ph26.i, %_ZNK14cmFileLockPool15IsAlreadyLockedERKNSt7__cxx1112basic_stringIcSt11char_traitsIcESaIcEEE.exit
  %19 = tail call i64 @_ZN16cmFileLockResult17MakeAlreadyLockedEv()
  br label %29

20:                                               ; preds = %_ZNK14cmFileLockPool15IsAlreadyLockedERKNSt7__cxx1112basic_stringIcSt11char_traitsIcESaIcEEE.exit
  %21 = load ptr, ptr %0, align 8
  %22 = load ptr, ptr %5, align 8
  %23 = icmp eq ptr %21, %22
  br i1 %23, label %24, label %26

24:                                               ; preds = %20
  %25 = tail call i64 @_ZN16cmFileLockResult14MakeNoFunctionEv()
  br label %29

26:                                               ; preds = %20
  %27 = getelementptr inbounds i8, ptr %22, i64 -24
  %28 = tail call i64 @_ZN14cmFileLockPool9ScopePool4LockERKNSt7__cxx1112basic_stringIcSt11char_traitsIcESaIcEEEm(ptr noundef nonnull align 8 dereferenceable(24) %27, ptr noundef nonnull align 8 dereferenceable(32) %1, i64 noundef %2)
  br label %29

29:                                               ; preds = %26, %24, %_ZNK14cmFileLockPool15IsAlreadyLockedERKNSt7__cxx1112basic_stringIcSt11char_traitsIcESaIcEEE.exit.thread
  %.sroa.0.0 = phi i64 [ %19, %_ZNK14cmFileLockPool15IsAlreadyLockedERKNSt7__cxx1112basic_stringIcSt11char_traitsIcESaIcEEE.exit.thread ], [ %25, %24 ], [ %28, %26 ]
  ret i64 %.sroa.0.0
}